target datalayout = "e-m:e-p270:32:32-p271:32:32-p272:64:64-i64:64-i128:128-f80:128-n8:16:32:64-S128"
target triple = "x86_64-pc-linux-gnu"

; Function Attrs: nounwind uwtable
define hidden void @_Py_skiproot(ptr noundef %0, i64 noundef %1, ptr noundef %2, ptr noundef %3) #0 {
  %5 = alloca ptr, align 8
  %6 = alloca i64, align 8
  %7 = alloca ptr, align 8
  %8 = alloca ptr, align 8
  store ptr %0, ptr %5, align 8, !tbaa !177
  store i64 %1, ptr %6, align 8, !tbaa !186
  store ptr %2, ptr %7, align 8, !tbaa !189
  store ptr %3, ptr %8, align 8, !tbaa !189
  %9 = load ptr, ptr %7, align 8, !tbaa !189
  store i64 0, ptr %9, align 8, !tbaa !186
  %10 = load ptr, ptr %5, align 8, !tbaa !177
  %11 = getelementptr i32, ptr %10, i64 0
  %12 = load i32, ptr %11, align 4, !tbaa !4
  %13 = icmp eq i32 %12, 47
  br i1 %13, label %16, label %14

14:                                               ; preds = %4
  %15 = load ptr, ptr %8, align 8, !tbaa !189
  store i64 0, ptr %15, align 8, !tbaa !186
  br label %31

16:                                               ; preds = %4
  %17 = load ptr, ptr %5, align 8, !tbaa !177
  %18 = getelementptr i32, ptr %17, i64 1
  %19 = load i32, ptr %18, align 4, !tbaa !4
  %20 = icmp eq i32 %19, 47
  br i1 %20, label %21, label %26

21:                                               ; preds = %16
  %22 = load ptr, ptr %5, align 8, !tbaa !177
  %23 = getelementptr i32, ptr %22, i64 2
  %24 = load i32, ptr %23, align 4, !tbaa !4
  %25 = icmp eq i32 %24, 47
  br i1 %25, label %26, label %28

26:                                               ; preds = %21, %16
  %27 = load ptr, ptr %8, align 8, !tbaa !189
  store i64 1, ptr %27, align 8, !tbaa !186
  br label %30

28:                                               ; preds = %21
  %29 = load ptr, ptr %8, align 8, !tbaa !189
  store i64 2, ptr %29, align 8, !tbaa !186
  br label %30

30:                                               ; preds = %28, %26
  br label %31

31:                                               ; preds = %30, %14
  ret void
}