; Function Attrs: mustprogress nofree norecurse nosync nounwind willreturn memory(argmem: readwrite) uwtable
define hidden void @_Py_skiproot(ptr noundef readonly captures(none) %0, i64 noundef %1, ptr noundef writeonly captures(none) initializes((0, 8)) %2, ptr noundef writeonly captures(none) initializes((0, 8)) %3) local_unnamed_addr #13 {
  store i64 0, ptr %2, align 8, !tbaa !183
  %5 = load i32, ptr %0, align 4, !tbaa !180
  %6 = icmp eq i32 %5, 47
  br i1 %6, label %7, label %15

7:                                                ; preds = %4
  %8 = getelementptr i8, ptr %0, i64 4
  %9 = load i32, ptr %8, align 4, !tbaa !180
  %10 = icmp eq i32 %9, 47
  br i1 %10, label %11, label %15

11:                                               ; preds = %7
  %12 = getelementptr i8, ptr %0, i64 8
  %13 = load i32, ptr %12, align 4, !tbaa !180
  %14 = icmp eq i32 %13, 47
  %spec.select = select i1 %14, i64 1, i64 2
  br label %15

15:                                               ; preds = %11, %7, %4
  %.sink = phi i64 [ 0, %4 ], [ 1, %7 ], [ %spec.select, %11 ]
  store i64 %.sink, ptr %3, align 8, !tbaa !183
  ret void
}